target datalayout = "e-m:e-p270:32:32-p271:32:32-p272:64:64-i64:64-i128:128-f80:128-n8:16:32:64-S128"
target triple = "x86_64-pc-linux-gnu"

%struct.expert_field = type { i32, i32 }

@hf_isis_hello_is_neighbor = internal global i32 0, align 4
@ei_isis_hello_short_clv = internal global %struct.expert_field zeroinitializer, align 4
@.str.222 = private unnamed_addr constant [28 x i8] c"short is neighbor (%d vs 6)\00", align 1

; Function Attrs: null_pointer_is_valid sspstrong uwtable
define internal void @dissect_hello_is_neighbors_clv(ptr noundef %0, ptr noundef %1, ptr noundef %2, i32 noundef %3, ptr noundef %4, i32 noundef %5) #0 {
  %7 = alloca ptr, align 8
  %8 = alloca ptr, align 8
  %9 = alloca ptr, align 8
  %10 = alloca i32, align 4
  %11 = alloca ptr, align 8
  %12 = alloca i32, align 4
  store ptr %0, ptr %7, align 8
  store ptr %1, ptr %8, align 8
  store ptr %2, ptr %9, align 8
  store i32 %3, ptr %10, align 4
  store ptr %4, ptr %11, align 8
  store i32 %5, ptr %12, align 4
  br label %13

13:                                               ; preds = %26, %6
  %14 = load i32, ptr %12, align 4
  %15 = icmp sgt i32 %14, 0
  br i1 %15, label %16, label %36

16:                                               ; preds = %13
  %17 = load i32, ptr %12, align 4
  %18 = icmp slt i32 %17, 6
  br i1 %18, label %19, label %26

19:                                               ; preds = %16
  %20 = load ptr, ptr %9, align 8
  %21 = load ptr, ptr %8, align 8
  %22 = load ptr, ptr %7, align 8
  %23 = load i32, ptr %10, align 4
  %24 = load i32, ptr %12, align 4
  %25 = call ptr (ptr, ptr, ptr, ptr, i32, i32, ptr, ...) @proto_tree_add_expert_format(ptr noundef %20, ptr noundef %21, ptr noundef @ei_isis_hello_short_clv, ptr noundef %22, i32 noundef %23, i32 noundef -1, ptr noundef @.str.222, i32 noundef %24)
  br label %36

26:                                               ; preds = %16
  %27 = load ptr, ptr %9, align 8
  %28 = load i32, ptr @hf_isis_hello_is_neighbor, align 4
  %29 = load ptr, ptr %7, align 8
  %30 = load i32, ptr %10, align 4
  %31 = call ptr @proto_tree_add_item(ptr noundef %27, i32 noundef %28, ptr noundef %29, i32 noundef %30, i32 noundef 6, i32 noundef 0)
  %32 = load i32, ptr %10, align 4
  %33 = add i32 %32, 6
  store i32 %33, ptr %10, align 4
  %34 = load i32, ptr %12, align 4
  %35 = sub i32 %34, 6
  store i32 %35, ptr %12, align 4
  br label %13, !llvm.loop !15

36:                                               ; preds = %19, %13
  ret void
}