; Function Attrs: null_pointer_is_valid sspstrong uwtable
define internal void @dissect_hello_is_neighbors_clv(ptr noundef %0, ptr noundef %1, ptr noundef %2, i32 noundef %3, ptr readnone captures(none) %4, i32 noundef %5) #0 {
  %7 = icmp sgt i32 %5, 0
  br i1 %7, label %.lr.ph, label %.loopexit

.lr.ph:                                           ; preds = %6, %11
  %.015 = phi i32 [ %15, %11 ], [ %5, %6 ]
  %.01114 = phi i32 [ %14, %11 ], [ %3, %6 ]
  %8 = icmp samesign ult i32 %.015, 6
  br i1 %8, label %9, label %11

9:                                                ; preds = %.lr.ph
  %10 = tail call ptr (ptr, ptr, ptr, ptr, i32, i32, ptr, ...) @proto_tree_add_expert_format(ptr noundef %2, ptr noundef %1, ptr noundef nonnull @ei_isis_hello_short_clv, ptr noundef %0, i32 noundef %.01114, i32 noundef -1, ptr noundef nonnull @.str.222, i32 noundef %.015)
  br label %.loopexit

11:                                               ; preds = %.lr.ph
  %12 = load i32, ptr @hf_isis_hello_is_neighbor, align 4
  %13 = tail call ptr @proto_tree_add_item(ptr noundef %2, i32 noundef %12, ptr noundef %0, i32 noundef %.01114, i32 noundef 6, i32 noundef 0)
  %14 = add i32 %.01114, 6
  %15 = add nsw i32 %.015, -6
  %.not = icmp eq i32 %.015, 6
  br i1 %.not, label %.loopexit, label %.lr.ph, !llvm.loop !12

.loopexit:                                        ; preds = %11, %6, %9
  ret void
}